; Function Attrs: mustprogress nofree norecurse nosync nounwind null_pointer_is_valid sspstrong willreturn memory(argmem: read) uwtable
define internal range(i32 0, 2) i32 @sbus_equal(ptr noundef readonly captures(none) %0, ptr noundef readonly captures(none) %1) #3 {
  %3 = load i32, ptr %0, align 4
  %4 = load i32, ptr %1, align 4
  %5 = icmp eq i32 %3, %4
  br i1 %5, label %6, label %12

6:                                                ; preds = %2
  %7 = getelementptr inbounds nuw i8, ptr %0, i64 4
  %8 = load i16, ptr %7, align 4
  %9 = getelementptr inbounds nuw i8, ptr %1, i64 4
  %10 = load i16, ptr %9, align 4
  %11 = icmp eq i16 %8, %10
  br i1 %11, label %13, label %12

12:                                               ; preds = %6, %2
  br label %13

13:                                               ; preds = %6, %12
  %.0 = phi i32 [ 0, %12 ], [ 1, %6 ]
  ret i32 %.0
}